; Function Attrs: mustprogress nounwind null_pointer_is_valid sspstrong uwtable
define void @_ZN18TapParameterDialogD2Ev(ptr noundef align 8 dereferenceable_or_null(232) initializes((0, 8), (16, 24)) %0) unnamed_addr #0 align 2 personality ptr @__gxx_personality_v0 {
  store ptr getelementptr inbounds nuw inrange(-16, 528) (i8, ptr @_ZTV18TapParameterDialog, i64 16), ptr %0, align 8
  %2 = getelementptr inbounds nuw i8, ptr %0, i64 16
  store ptr getelementptr inbounds nuw inrange(-16, 64) (i8, ptr @_ZTV18TapParameterDialog, i64 560), ptr %2, align 8
  %3 = getelementptr inbounds nuw i8, ptr %0, i64 144
  %4 = load ptr, ptr %3, align 8
  %5 = icmp eq ptr %4, null
  br i1 %5, label %7, label %6

6:                                                ; preds = %1
  tail call void @_ZdlPvm(ptr noundef nonnull %4, i64 noundef 80) #32
  br label %7

7:                                                ; preds = %6, %1
  %8 = getelementptr inbounds nuw i8, ptr %0, i64 224
  %9 = load ptr, ptr %8, align 8
  invoke void @_ZN6QTimer4stopEv(ptr noundef align 8 dereferenceable_or_null(16) %9)
          to label %10 unwind label %34

10:                                               ; preds = %7
  %11 = load ptr, ptr %8, align 8
  %12 = icmp eq ptr %11, null
  br i1 %12, label %17, label %13

13:                                               ; preds = %10
  %14 = load ptr, ptr %11, align 8
  %15 = getelementptr inbounds nuw i8, ptr %14, i64 32
  %16 = load ptr, ptr %15, align 8
  tail call void %16(ptr noundef nonnull align 8 dereferenceable_or_null(16) %11) #31
  br label %17

17:                                               ; preds = %13, %10
  %18 = getelementptr inbounds nuw i8, ptr %0, i64 192
  %19 = load ptr, ptr %18, align 8
  %.not.i.i.i = icmp eq ptr %19, null
  br i1 %.not.i.i.i, label %_ZN5QListIP7QActionED2Ev.exit, label %_ZN17QArrayDataPointerIP7QActionE5derefEv.exit.i.i

_ZN17QArrayDataPointerIP7QActionE5derefEv.exit.i.i: ; preds = %17
  %20 = atomicrmw sub ptr %19, i32 1 seq_cst, align 4
  %.not.i.i = icmp eq i32 %20, 1
  br i1 %.not.i.i, label %21, label %_ZN5QListIP7QActionED2Ev.exit

21:                                               ; preds = %_ZN17QArrayDataPointerIP7QActionE5derefEv.exit.i.i
  %22 = load ptr, ptr %18, align 8
  tail call void @_ZN10QArrayData10deallocateEPS_xx(ptr noundef %22, i64 noundef 8, i64 noundef 8) #31
  br label %_ZN5QListIP7QActionED2Ev.exit

_ZN5QListIP7QActionED2Ev.exit:                    ; preds = %17, %_ZN17QArrayDataPointerIP7QActionE5derefEv.exit.i.i, %21
  %23 = getelementptr inbounds nuw i8, ptr %0, i64 152
  tail call void @_ZN5QMenuD1Ev(ptr noundef nonnull align 8 dereferenceable_or_null(40) %23) #31
  store ptr getelementptr inbounds nuw inrange(-16, 496) (i8, ptr @_ZTV15WiresharkDialog, i64 16), ptr %0, align 8
  store ptr getelementptr inbounds nuw inrange(-16, 64) (i8, ptr @_ZTV15WiresharkDialog, i64 528), ptr %2, align 8
  %24 = getelementptr inbounds nuw i8, ptr %0, i64 112
  %25 = load ptr, ptr %24, align 8
  %.not.i.i.i.i = icmp eq ptr %25, null
  br i1 %.not.i.i.i.i, label %_ZN5QListIPvED2Ev.exit.i, label %_ZN17QArrayDataPointerIPvE5derefEv.exit.i.i.i

_ZN17QArrayDataPointerIPvE5derefEv.exit.i.i.i:    ; preds = %_ZN5QListIP7QActionED2Ev.exit
  %26 = atomicrmw sub ptr %25, i32 1 seq_cst, align 4
  %.not.i.i.i2 = icmp eq i32 %26, 1
  br i1 %.not.i.i.i2, label %27, label %_ZN5QListIPvED2Ev.exit.i

27:                                               ; preds = %_ZN17QArrayDataPointerIPvE5derefEv.exit.i.i.i
  %28 = load ptr, ptr %24, align 8
  tail call void @_ZN10QArrayData10deallocateEPS_xx(ptr noundef %28, i64 noundef 8, i64 noundef 8) #31
  br label %_ZN5QListIPvED2Ev.exit.i

_ZN5QListIPvED2Ev.exit.i:                         ; preds = %27, %_ZN17QArrayDataPointerIPvE5derefEv.exit.i.i.i, %_ZN5QListIP7QActionED2Ev.exit
  %29 = getelementptr inbounds nuw i8, ptr %0, i64 88
  %30 = load ptr, ptr %29, align 8
  %.not.i.i.i1.i = icmp eq ptr %30, null
  br i1 %.not.i.i.i1.i, label %_ZN15WiresharkDialogD2Ev.exit, label %_ZN17QArrayDataPointerIDsE5derefEv.exit.i.i.i

_ZN17QArrayDataPointerIDsE5derefEv.exit.i.i.i:    ; preds = %_ZN5QListIPvED2Ev.exit.i
  %31 = atomicrmw sub ptr %30, i32 1 seq_cst, align 4
  %.not.i.i2.i = icmp eq i32 %31, 1
  br i1 %.not.i.i2.i, label %32, label %_ZN15WiresharkDialogD2Ev.exit

32:                                               ; preds = %_ZN17QArrayDataPointerIDsE5derefEv.exit.i.i.i
  %33 = load ptr, ptr %29, align 8
  tail call void @_ZN10QArrayData10deallocateEPS_xx(ptr noundef %33, i64 noundef 2, i64 noundef 8) #31
  br label %_ZN15WiresharkDialogD2Ev.exit

_ZN15WiresharkDialogD2Ev.exit:                    ; preds = %_ZN5QListIPvED2Ev.exit.i, %_ZN17QArrayDataPointerIDsE5derefEv.exit.i.i.i, %32
  tail call void @_ZN19GeometryStateDialogD2Ev(ptr noundef align 8 dereferenceable_or_null(141) %0) #31
  ret void

34:                                               ; preds = %7
  %35 = landingpad { ptr, i32 }
          catch ptr null
  %36 = extractvalue { ptr, i32 } %35, 0
  tail call void @__clang_call_terminate(ptr %36) #34
  unreachable
}